; Function Attrs: nounwind sspstrong uwtable
define internal range(i32 0, 3) i32 @ssl_alpn_select_cb(ptr noundef %0, ptr noundef writeonly captures(none) %1, ptr noundef writeonly captures(none) %2, ptr noundef %3, i32 noundef %4, ptr noundef %5) #0 {
  %7 = alloca i32, align 4
  %8 = alloca %struct.npn_select_cb_common_args, align 8
  %9 = ptrtoint ptr %5 to i64
  %10 = load i64, ptr @id_i_alpn_select_cb, align 8, !tbaa !10
  %11 = tail call i64 @rb_attr_get(i64 noundef %9, i64 noundef %10) #9
  call void @llvm.lifetime.start.p0(i64 4, ptr nonnull %7) #9
  call void @llvm.lifetime.start.p0(i64 24, ptr nonnull %8) #9
  store i64 %11, ptr %8, align 8, !tbaa !77
  %12 = getelementptr inbounds nuw i8, ptr %8, i64 8
  store ptr %3, ptr %12, align 8, !tbaa !79
  %13 = getelementptr inbounds nuw i8, ptr %8, i64 16
  store i32 %4, ptr %13, align 8, !tbaa !80
  %14 = ptrtoint ptr %8 to i64
  %15 = call i64 @rb_protect(ptr noundef nonnull @npn_select_cb_common_i, i64 noundef %14, ptr noundef nonnull %7) #9
  %16 = load i32, ptr %7, align 4, !tbaa !6
  %.not.i = icmp eq i32 %16, 0
  br i1 %.not.i, label %27, label %17

17:                                               ; preds = %6
  %18 = load i32, ptr @ossl_ssl_ex_ptr_idx, align 4, !tbaa !6
  %19 = call ptr @SSL_get_ex_data(ptr noundef %0, i32 noundef %18) #9
  %20 = ptrtoint ptr %19 to i64
  %21 = load i64, ptr @ID_callback_state, align 8, !tbaa !10
  %22 = load i32, ptr %7, align 4, !tbaa !6
  %23 = sext i32 %22 to i64
  %24 = shl nsw i64 %23, 1
  %25 = or disjoint i64 %24, 1
  %26 = call i64 @rb_ivar_set(i64 noundef %20, i64 noundef %21, i64 noundef %25) #9
  br label %ssl_npn_select_cb_common.exit

27:                                               ; preds = %6
  %28 = inttoptr i64 %15 to ptr
  %29 = load i64, ptr %28, align 8, !tbaa !18, !noalias !84
  %30 = and i64 %29, 8192
  %.not.i.i.i = icmp eq i64 %30, 0
  %31 = getelementptr inbounds nuw i8, ptr %28, i64 24
  br i1 %.not.i.i.i, label %RSTRING_PTR.exit.i, label %32

32:                                               ; preds = %27
  %.sroa.2.0.copyload.i.i = load ptr, ptr %31, align 8
  br label %RSTRING_PTR.exit.i

RSTRING_PTR.exit.i:                               ; preds = %32, %27
  %.sroa.2.0.i.i = phi ptr [ %.sroa.2.0.copyload.i.i, %32 ], [ %31, %27 ]
  store ptr %.sroa.2.0.i.i, ptr %1, align 8, !tbaa !46
  %33 = getelementptr inbounds nuw i8, ptr %28, i64 16
  %34 = load i64, ptr %33, align 8, !tbaa !37
  %35 = trunc i64 %34 to i8
  store i8 %35, ptr %2, align 1, !tbaa !30
  br label %ssl_npn_select_cb_common.exit

ssl_npn_select_cb_common.exit:                    ; preds = %17, %RSTRING_PTR.exit.i
  %.0.i = phi i32 [ 2, %17 ], [ 0, %RSTRING_PTR.exit.i ]
  call void @llvm.lifetime.end.p0(i64 24, ptr nonnull %8) #9
  call void @llvm.lifetime.end.p0(i64 4, ptr nonnull %7) #9
  ret i32 %.0.i
}